target datalayout = "e-m:e-p270:32:32-p271:32:32-p272:64:64-i64:64-i128:128-f80:128-n8:16:32:64-S128"
target triple = "x86_64-pc-linux-gnu"

%struct.png_row_info_struct = type { i32, i64, i8, i8, i8, i8 }

; Function Attrs: nounwind uwtable
define void @png_do_swap(ptr noundef %0, ptr noundef %1) #0 {
  %3 = alloca ptr, align 8
  %4 = alloca ptr, align 8
  %5 = alloca ptr, align 8
  %6 = alloca i32, align 4
  %7 = alloca i32, align 4
  %8 = alloca i8, align 1
  store ptr %0, ptr %3, align 8
  store ptr %1, ptr %4, align 8
  %9 = load ptr, ptr %3, align 8
  %10 = getelementptr inbounds %struct.png_row_info_struct, ptr %9, i32 0, i32 3
  %11 = load i8, ptr %10, align 1
  %12 = zext i8 %11 to i32
  %13 = icmp eq i32 %12, 16
  br i1 %13, label %14, label %44

14:                                               ; preds = %2
  %15 = load ptr, ptr %4, align 8
  store ptr %15, ptr %5, align 8
  %16 = load ptr, ptr %3, align 8
  %17 = getelementptr inbounds %struct.png_row_info_struct, ptr %16, i32 0, i32 0
  %18 = load i32, ptr %17, align 8
  %19 = load ptr, ptr %3, align 8
  %20 = getelementptr inbounds %struct.png_row_info_struct, ptr %19, i32 0, i32 4
  %21 = load i8, ptr %20, align 2
  %22 = zext i8 %21 to i32
  %23 = mul i32 %18, %22
  store i32 %23, ptr %7, align 4
  store i32 0, ptr %6, align 4
  br label %24

24:                                               ; preds = %38, %14
  %25 = load i32, ptr %6, align 4
  %26 = load i32, ptr %7, align 4
  %27 = icmp ult i32 %25, %26
  br i1 %27, label %28, label %43

28:                                               ; preds = %24
  %29 = load ptr, ptr %5, align 8
  %30 = load i8, ptr %29, align 1
  store i8 %30, ptr %8, align 1
  %31 = load ptr, ptr %5, align 8
  %32 = getelementptr inbounds i8, ptr %31, i64 1
  %33 = load i8, ptr %32, align 1
  %34 = load ptr, ptr %5, align 8
  store i8 %33, ptr %34, align 1
  %35 = load i8, ptr %8, align 1
  %36 = load ptr, ptr %5, align 8
  %37 = getelementptr inbounds i8, ptr %36, i64 1
  store i8 %35, ptr %37, align 1
  br label %38

38:                                               ; preds = %28
  %39 = load i32, ptr %6, align 4
  %40 = add i32 %39, 1
  store i32 %40, ptr %6, align 4
  %41 = load ptr, ptr %5, align 8
  %42 = getelementptr inbounds i8, ptr %41, i64 2
  store ptr %42, ptr %5, align 8
  br label %24, !llvm.loop !8

43:                                               ; preds = %24
  br label %44

44:                                               ; preds = %43, %2
  ret void
}