; Function Attrs: nofree norecurse nosync nounwind memory(readwrite, inaccessiblemem: none) uwtable
define void @png_do_swap(ptr nocapture noundef readonly %0, ptr nocapture noundef %1) local_unnamed_addr #4 {
  %3 = getelementptr inbounds i8, ptr %0, i64 17
  %4 = load i8, ptr %3, align 1
  %5 = icmp eq i8 %4, 16
  br i1 %5, label %6, label %.loopexit

6:                                                ; preds = %2
  %7 = load i32, ptr %0, align 8
  %8 = getelementptr inbounds i8, ptr %0, i64 18
  %9 = load i8, ptr %8, align 2
  %10 = zext i8 %9 to i32
  %11 = mul i32 %7, %10
  %.not = icmp eq i32 %11, 0
  br i1 %.not, label %.loopexit, label %.lr.ph

.lr.ph:                                           ; preds = %6, %.lr.ph
  %.014 = phi ptr [ %16, %.lr.ph ], [ %1, %6 ]
  %.01213 = phi i32 [ %15, %.lr.ph ], [ 0, %6 ]
  %12 = load i8, ptr %.014, align 1
  %13 = getelementptr inbounds i8, ptr %.014, i64 1
  %14 = load i8, ptr %13, align 1
  store i8 %14, ptr %.014, align 1
  store i8 %12, ptr %13, align 1
  %15 = add nuw i32 %.01213, 1
  %16 = getelementptr inbounds i8, ptr %.014, i64 2
  %exitcond.not = icmp eq i32 %15, %11
  br i1 %exitcond.not, label %.loopexit, label %.lr.ph, !llvm.loop !11

.loopexit:                                        ; preds = %.lr.ph, %6, %2
  ret void
}